; Function Attrs: mustprogress uwtable
define void @_ZN5Yosys5RTLIL9const_notERKNS0_5ConstES3_bbi(ptr dead_on_unwind noalias writable sret(%"struct.Yosys::RTLIL::Const") align 8 %0, ptr noundef nonnull align 8 dereferenceable(40) %1, ptr noundef nonnull readnone align 8 captures(none) dereferenceable(40) %2, i1 noundef zeroext %3, i1 noundef zeroext %4, i32 noundef %5) local_unnamed_addr #3 personality ptr @__gxx_personality_v0 {
  %7 = alloca %"struct.Yosys::RTLIL::Const", align 8
  %8 = icmp slt i32 %5, 0
  br i1 %8, label %9, label %11

9:                                                ; preds = %6
  %10 = tail call noundef i32 @_ZNK5Yosys5RTLIL5Const4sizeEv(ptr noundef nonnull align 8 dereferenceable(40) %1)
  br label %11

11:                                               ; preds = %9, %6
  %.019 = phi i32 [ %10, %9 ], [ %5, %6 ]
  call void @llvm.lifetime.start.p0(i64 40, ptr nonnull %7) #19
  call void @_ZN5Yosys5RTLIL5ConstC1ERKS1_(ptr noundef nonnull align 8 dereferenceable(40) %7, ptr noundef nonnull align 8 dereferenceable(40) %1)
  invoke fastcc void @_ZN5YosysL9extend_u0ERNS_5RTLIL5ConstEib(ptr noundef nonnull align 8 dereferenceable(40) %7, i32 noundef %.019, i1 noundef zeroext %3)
          to label %12 unwind label %14

12:                                               ; preds = %11
  invoke void @_ZN5Yosys5RTLIL5ConstC1ENS0_5StateEi(ptr noundef nonnull align 8 dereferenceable(40) %0, i8 noundef zeroext 2, i32 noundef %.019)
          to label %.preheader unwind label %14

.preheader:                                       ; preds = %12
  %13 = icmp sgt i32 %.019, 0
  br i1 %13, label %.lr.ph.preheader, label %._crit_edge

.lr.ph.preheader:                                 ; preds = %.preheader
  %wide.trip.count = zext nneg i32 %.019 to i64
  br label %.lr.ph

14:                                               ; preds = %12, %11
  %15 = landingpad { ptr, i32 }
          cleanup
  br label %40

.lr.ph:                                           ; preds = %.lr.ph.preheader, %39
  %indvars.iv = phi i64 [ 0, %.lr.ph.preheader ], [ %indvars.iv.next, %39 ]
  %16 = invoke noundef i32 @_ZNK5Yosys5RTLIL5Const4sizeEv(ptr noundef nonnull align 8 dereferenceable(40) %7)
          to label %_ZN5Yosys7GetSizeINS_5RTLIL5ConstEEEiRKT_.exit unwind label %18

_ZN5Yosys7GetSizeINS_5RTLIL5ConstEEEiRKT_.exit:   ; preds = %.lr.ph
  %17 = sext i32 %16 to i64
  %.not = icmp slt i64 %indvars.iv, %17
  br i1 %.not, label %20, label %.invoke

18:                                               ; preds = %.invoke, %.lr.ph, %29, %27, %20
  %19 = landingpad { ptr, i32 }
          cleanup
  call void @_ZN5Yosys5RTLIL5ConstD1Ev(ptr noundef nonnull align 8 dereferenceable(40) %0) #19
  br label %40

20:                                               ; preds = %_ZN5Yosys7GetSizeINS_5RTLIL5ConstEEEiRKT_.exit
  %21 = invoke noundef nonnull align 8 dereferenceable(24) ptr @_ZN5Yosys5RTLIL5Const4bitsEv(ptr noundef nonnull align 8 dereferenceable(40) %7)
          to label %22 unwind label %18

22:                                               ; preds = %20
  %23 = load ptr, ptr %21, align 8, !tbaa !6
  %24 = getelementptr inbounds nuw i8, ptr %23, i64 %indvars.iv
  %25 = load i8, ptr %24, align 1, !tbaa !11
  %26 = icmp eq i8 %25, 0
  br i1 %26, label %27, label %29

27:                                               ; preds = %22
  %28 = invoke noundef nonnull align 8 dereferenceable(24) ptr @_ZN5Yosys5RTLIL5Const4bitsEv(ptr noundef nonnull align 8 dereferenceable(40) %0)
          to label %.sink.split unwind label %18

29:                                               ; preds = %22
  %30 = invoke noundef nonnull align 8 dereferenceable(24) ptr @_ZN5Yosys5RTLIL5Const4bitsEv(ptr noundef nonnull align 8 dereferenceable(40) %7)
          to label %31 unwind label %18

31:                                               ; preds = %29
  %32 = load ptr, ptr %30, align 8, !tbaa !6
  %33 = getelementptr inbounds nuw i8, ptr %32, i64 %indvars.iv
  %34 = load i8, ptr %33, align 1, !tbaa !11
  %35 = icmp eq i8 %34, 1
  br i1 %35, label %.invoke, label %39

.invoke:                                          ; preds = %_ZN5Yosys7GetSizeINS_5RTLIL5ConstEEEiRKT_.exit, %31
  %36 = invoke noundef nonnull align 8 dereferenceable(24) ptr @_ZN5Yosys5RTLIL5Const4bitsEv(ptr noundef nonnull align 8 dereferenceable(40) %0)
          to label %.sink.split unwind label %18

.sink.split:                                      ; preds = %.invoke, %27
  %.sink26 = phi ptr [ %28, %27 ], [ %36, %.invoke ]
  %.sink = phi i8 [ 1, %27 ], [ 0, %.invoke ]
  %37 = load ptr, ptr %.sink26, align 8, !tbaa !6
  %38 = getelementptr inbounds nuw i8, ptr %37, i64 %indvars.iv
  store i8 %.sink, ptr %38, align 1, !tbaa !11
  br label %39

39:                                               ; preds = %.sink.split, %31
  %indvars.iv.next = add nuw nsw i64 %indvars.iv, 1
  %exitcond.not = icmp eq i64 %indvars.iv.next, %wide.trip.count
  br i1 %exitcond.not, label %._crit_edge, label %.lr.ph, !llvm.loop !13

._crit_edge:                                      ; preds = %39, %.preheader
  call void @_ZN5Yosys5RTLIL5ConstD1Ev(ptr noundef nonnull align 8 dereferenceable(40) %7) #19
  call void @llvm.lifetime.end.p0(i64 40, ptr nonnull %7) #19
  ret void

40:                                               ; preds = %18, %14
  %.pn = phi { ptr, i32 } [ %19, %18 ], [ %15, %14 ]
  call void @_ZN5Yosys5RTLIL5ConstD1Ev(ptr noundef nonnull align 8 dereferenceable(40) %7) #19
  call void @llvm.lifetime.end.p0(i64 40, ptr nonnull %7) #19
  resume { ptr, i32 } %.pn
}